(dp0
S'a'
p1
(dp2
S'digit4attempted'
p3
I0
sS'logins'
p4
I6
sS'digit7attempted'
p5
I0
sS'digit2attempted'
p6
I1
sS'digit6attempted'
p7
I0
sS'digit5attempted'
p8
I0
sS'totalPercentage'
p9
F2.5
sS'percentSuccess'
p10
F1.0
sS'digit9attempted'
p11
I0
sS'digit8attempted'
p12
I0
sS'digit3attempted'
p13
I16
sS'digit1attempted'
p14
I6
ssS'c'
p15
(dp16
S'digit4attempted'
p17
I0
sS'logins'
p18
I5
sS'digit7attempted'
p19
I0
sS'digit2attempted'
p20
I1
sS'digit6attempted'
p21
I0
sS'digit5attempted'
p22
I0
sS'totalPercentage'
p23
F2.428571428571429
sS'percentSuccess'
p24
F0.5714285714285714
sS'digit9attempted'
p25
I0
sS'digit8attempted'
p26
I0
sS'digit3attempted'
p27
I12
sS'digit1attempted'
p28
I7
ssS'b'
p29
(dp30
S'digit4attempted'
p31
I0
sS'logins'
p32
I9
sS'digit7attempted'
p33
I0
sS'digit2attempted'
p34
I1
sS'digit6attempted'
p35
I0
sS'digit5attempted'
p36
I0
sS'totalPercentage'
p37
F4.166666666666666
sS'percentSuccess'
p38
F1.0
sS'digit9attempted'
p39
I0
sS'digit8attempted'
p40
I0
sS'digit3attempted'
p41
I24
sS'digit1attempted'
p42
I11
ssS'Luke'
p43
(dp44
S'digit4attempted'
p45
I3
sS'logins'
p46
I18
sS'digit7attempted'
p47
I0
sS'digit2attempted'
p48
I6
sS'digit6attempted'
p49
I2
sS'digit5attempted'
p50
I2
sS'totalPercentage'
p51
F4.541666666666666
sS'percentSuccess'
p52
F1.0
sS'digit9attempted'
p53
I0
sS'digit8attempted'
p54
I1
sS'digit3attempted'
p55
I49
sS'digit1attempted'
p56
I22
ssS'try'
p57
(dp58
S'digit4attempted'
p59
I3
sS'logins'
p60
I5
sS'digit7attempted'
p61
I0
sS'digit2attempted'
p62
I3
sS'digit6attempted'
p63
I0
sS'digit5attempted'
p64
I2
sS'totalPercentage'
p65
F1.8695652173913042
sS'percentSuccess'
p66
F0.8695652173913043
sS'digit9attempted'
p67
I0
sS'digit8attempted'
p68
I0
sS'digit3attempted'
p69
I13
sS'digit1attempted'
p70
I6
ssS'test'
p71
(dp72
S'digit4attempted'
p73
I0
sS'logins'
p74
I1
sS'digit7attempted'
p75
I0
sS'digit2attempted'
p76
I0
sS'digit6attempted'
p77
I0
sS'digit5attempted'
p78
I0
sS'totalPercentage'
p79
F0.0
sS'digit9attempted'
p80
I0
sS'digit8attempted'
p81
I0
sS'digit3attempted'
p82
I2
sS'digit1attempted'
p83
I2
ssS'tes'
p84
(dp85
S'digit4attempted'
p86
I0
sS'logins'
p87
I1
sS'digit7attempted'
p88
I0
sS'digit2attempted'
p89
I0
sS'digit6attempted'
p90
I0
sS'digit5attempted'
p91
I0
sS'totalPercentage'
p92
F0.0
sS'digit9attempted'
p93
I0
sS'digit8attempted'
p94
I0
sS'digit3attempted'
p95
I3
sS'digit1attempted'
p96
I2
ss.