(dp0
S'a'
p1
(dp2
S'digit4attempted'
p3
I14
sS'logins'
p4
I2
sS'digit7attempted'
p5
I4
sS'digit2attempted'
p6
I14
sS'digit6attempted'
p7
I6
sS'digit5attempted'
p8
I7
sS'digit0attempted'
p9
I8
sS'totalPercentage'
p10
F0.8987341772151899
sS'percentSuccess'
p11
F1.0
sS'digit9attempted'
p12
I0
sS'digit8attempted'
p13
I1
sS'digit3attempted'
p14
I9
sS'digit1attempted'
p15
I12
ss.