(dp0
S'a'
p1
(dp2
S'digit4attempted'
p3
I2
sS'totalPercentage'
p4
F0.8888888888888888
sS'logins'
p5
I1
sS'digit7attempted'
p6
I0
sS'digit2attempted'
p7
I3
sS'arithmaticStage'
p8
I00
sS'digit6attempted'
p9
I2
sS'digit5attempted'
p10
I3
sS'digit0attempted'
p11
I3
sS'reducedTimeStage'
p12
I00
sS'percentSuccess'
p13
F0.8888888888888888
sS'digit9attempted'
p14
I0
sS'digit8attempted'
p15
I0
sS'digit3attempted'
p16
I3
sS'allDigitsDisplayedAndSucceeded'
p17
I00
sS'digit1attempted'
p18
I3
sS'digitsToDisplay'
p19
I6
sS'digitsThatHaveBeenDisplayed'
p20
(lp21
I3
aI1
aI2
aI0
aI4
aI5
aI6
assS'test'
p22
(dp23
S'digit4attempted'
p24
I0
sS'reducedTimeStage'
p25
I00
sS'logins'
p26
I5
sS'digit7attempted'
p27
I0
sS'digit2attempted'
p28
I3
sS'arithmaticStage'
p29
I01
sS'digit6attempted'
p30
I2
sS'digit5attempted'
p31
I0
sS'digit0attempted'
p32
I0
sS'totalPercentage'
p33
F3.904166666666667
sS'percentSuccess'
p34
F0.8333333333333334
sS'digit9attempted'
p35
I0
sS'digit8attempted'
p36
I0
sS'digit3attempted'
p37
I1
sS'allDigitsDisplayedAndSucceeded'
p38
I00
sS'digit1attempted'
p39
I1
sS'digitsToDisplay'
p40
I3
sS'digitsThatHaveBeenDisplayed'
p41
(lp42
ssS'b'
p43
(dp44
S'digit4attempted'
p45
I9
sS'reducedTimeStage'
p46
I01
sS'logins'
p47
I2
sS'digit7attempted'
p48
I4
sS'digit2attempted'
p49
I8
sS'arithmaticStage'
p50
I01
sS'digit6attempted'
p51
I5
sS'digit5attempted'
p52
I10
sS'digit0attempted'
p53
I5
sS'totalPercentage'
p54
F1.321917808219178
sS'percentSuccess'
p55
F0.5
sS'digit9attempted'
p56
I4
sS'digit8attempted'
p57
I7
sS'digit3attempted'
p58
I7
sS'allDigitsDisplayedAndSucceeded'
p59
I01
sS'digit1attempted'
p60
I5
sS'digitsToDisplay'
p61
I9
sS'digitsThatHaveBeenDisplayed'
p62
(lp63
I3
aI2
aI1
aI0
aI4
aI5
aI6
aI7
aI8
aI9
ass.