(dp0
S'a'
p1
(dp2
S'digit4attempted'
p3
I14
sS'totalPercentage'
p4
F6.607521645021645
sS'logins'
p5
I7
sS'digit7attempted'
p6
I13
sS'digit2attempted'
p7
I19
sS'arithmaticStage'
p8
I01
sS'digit6attempted'
p9
I22
sS'digit5attempted'
p10
I10
sS'digit0attempted'
p11
I12
sS'reducedTimeStage'
p12
I01
sS'percentSuccess'
p13
F1.0
sS'digit9attempted'
p14
I12
sS'digit8attempted'
p15
I9
sS'digit3attempted'
p16
I16
sS'allDigitsDisplayedAndSucceeded'
p17
I01
sS'digit1attempted'
p18
I13
sS'digitsToDisplay'
p19
I9
sS'digitsThatHaveBeenDisplayed'
p20
(lp21
I3
aI2
aI1
aI4
aI5
aI0
aI6
aI7
aI8
aI9
assS'test'
p22
(dp23
S'digit4attempted'
p24
I0
sS'totalPercentage'
p25
F1.0
sS'logins'
p26
I1
sS'digit7attempted'
p27
I0
sS'digit2attempted'
p28
I1
sS'arithmaticStage'
p29
I00
sS'digit6attempted'
p30
I0
sS'digit5attempted'
p31
I0
sS'digit0attempted'
p32
I0
sS'reducedTimeStage'
p33
I00
sS'percentSuccess'
p34
F1.0
sS'digit9attempted'
p35
I0
sS'digit8attempted'
p36
I0
sS'digit3attempted'
p37
I2
sS'allDigitsDisplayedAndSucceeded'
p38
I00
sS'digit1attempted'
p39
I0
sS'digitsToDisplay'
p40
I3
sS'digitsThatHaveBeenDisplayed'
p41
(lp42
I3
aI2
assS'c'
p43
(dp44
S'digit4attempted'
p45
I2
sS'reducedTimeStage'
p46
I00
sS'logins'
p47
I1
sS'digit7attempted'
p48
I0
sS'digit2attempted'
p49
I1
sS'arithmaticStage'
p50
I00
sS'digit6attempted'
p51
I0
sS'digit5attempted'
p52
I0
sS'digit0attempted'
p53
I4
sS'totalPercentage'
p54
F1.0
sS'percentSuccess'
p55
F1.0
sS'digit9attempted'
p56
I0
sS'digit8attempted'
p57
I0
sS'digit3attempted'
p58
I2
sS'allDigitsDisplayedAndSucceeded'
p59
I00
sS'digit1attempted'
p60
I4
sS'digitsToDisplay'
p61
I4
sS'digitsThatHaveBeenDisplayed'
p62
(lp63
I3
aI1
aI0
aI2
aI4
assS'b'
p64
(dp65
S'digit4attempted'
p66
I11
sS'totalPercentage'
p67
F1.8785714285714286
sS'logins'
p68
I3
sS'digit7attempted'
p69
I6
sS'digit2attempted'
p70
I10
sS'arithmaticStage'
p71
I01
sS'digit6attempted'
p72
I17
sS'digit5attempted'
p73
I12
sS'digit0attempted'
p74
I19
sS'reducedTimeStage'
p75
I01
sS'percentSuccess'
p76
F0.95
sS'digit9attempted'
p77
I7
sS'digit8attempted'
p78
I8
sS'digit3attempted'
p79
I10
sS'allDigitsDisplayedAndSucceeded'
p80
I01
sS'digit1attempted'
p81
I12
sS'digitsToDisplay'
p82
I9
sS'digitsThatHaveBeenDisplayed'
p83
(lp84
I3
aI1
aI0
aI2
aI4
aI5
aI6
aI7
aI8
aI9
ass.