(dp0
S'luke'
p1
(dp2
S'digit4attempted'
p3
I0
sS'logins'
p4
I2
sS'digit7attempted'
p5
I4
sS'digit2attempted'
p6
I0
sS'digit6attempted'
p7
I1
sS'digit5attempted'
p8
I0
sS'digit8attempted'
p9
I0
sS'digit9attempted'
p10
I4
sS'digit3attempted'
p11
I1
sS'digit1attempted'
p12
I4
ss.