(dp0
S'Luke'
p1
(dp2
S'digit4attempted'
p3
I7
sS'logins'
p4
I1
sS'digit7attempted'
p5
I8
sS'digit2attempted'
p6
I10
sS'digit6attempted'
p7
I6
sS'digit5attempted'
p8
I11
sS'digit8attempted'
p9
I5
sS'digit9attempted'
p10
I11
sS'digit3attempted'
p11
I17
sS'digit1attempted'
p12
I7
ss.