(dp0
S'a'
p1
(dp2
S'digit4attempted'
p3
I0
sS'logins'
p4
I6
sS'digit7attempted'
p5
I0
sS'digit2attempted'
p6
I1
sS'digit6attempted'
p7
I0
sS'digit5attempted'
p8
I0
sS'totalPercentage'
p9
F2.5
sS'percentSuccess'
p10
F1.0
sS'digit9attempted'
p11
I0
sS'digit8attempted'
p12
I0
sS'digit3attempted'
p13
I16
sS'digit1attempted'
p14
I6
ssS'c'
p15
(dp16
S'digit4attempted'
p17
I0
sS'logins'
p18
I5
sS'digit7attempted'
p19
I0
sS'digit2attempted'
p20
I1
sS'digit6attempted'
p21
I0
sS'digit5attempted'
p22
I0
sS'totalPercentage'
p23
F2.428571428571429
sS'percentSuccess'
p24
F0.5714285714285714
sS'digit9attempted'
p25
I0
sS'digit8attempted'
p26
I0
sS'digit3attempted'
p27
I12
sS'digit1attempted'
p28
I7
ssS'b'
p29
(dp30
S'digit4attempted'
p31
I0
sS'logins'
p32
I9
sS'digit7attempted'
p33
I0
sS'digit2attempted'
p34
I1
sS'digit6attempted'
p35
I0
sS'digit5attempted'
p36
I0
sS'totalPercentage'
p37
F4.166666666666666
sS'percentSuccess'
p38
F1.0
sS'digit9attempted'
p39
I0
sS'digit8attempted'
p40
I0
sS'digit3attempted'
p41
I24
sS'digit1attempted'
p42
I11
ss.