(dp0
S'Luke'
p1
(dp2
S's1_1'
p3
F1.186
sS's6mean'
p4
I0
sS's1mean'
p5
F1.186
sS'gold'
p6
I-1
sS'logins'
p7
I1
sS's8mean'
p8
I0
sS's7visits'
p9
I0
sS's2visits'
p10
I0
sS's5visits'
p11
I0
sS's0visits'
p12
I1
sS's2mean'
p13
I0
sS's6visits'
p14
I0
sS's0mean'
p15
F2.092
sS's8visits'
p16
I0
sS's0_1'
p17
F2.092
sS's1visits'
p18
I1
sS's5mean'
p19
I0
sS's7mean'
p20
I0
sS'silver'
p21
I-1
sS'bronze'
p22
I-1
ssS'Lucas'
p23
(dp24
S's6_2'
p25
F6.067
sS's6_3'
p26
F6.063
sS's6_1'
p27
F6.056
sS's6_6'
p28
F6.071
sS'gold'
p29
I2300
sS's6_5'
p30
F6.061
sS's6_4'
p31
F6.062
sS's2_14'
p32
F2.37
sS's2_15'
p33
F1.545
sS's2_16'
p34
F2.467
sS's2_17'
p35
F2.247
sS's2_10'
p36
F3.635
sS's2_11'
p37
F2.064
sS's2_12'
p38
F1.541
sS's2_13'
p39
F2.045
sS's2_18'
p40
F2.14
sS's2_19'
p41
F2.932
sS's7visits'
p42
I6
sS's5visits'
p43
I13
sS's0visits'
p44
I10
sS's0mean'
p45
F19.854999999999997
sS's1visits'
p46
I10
sS'silver'
p47
I2100
sS's2_8'
p48
F2.04
sS's2_9'
p49
F2.598
sS's2_6'
p50
F2.072
sS's2_7'
p51
F2.783
sS's2_4'
p52
F2.966
sS's2_5'
p53
F2.58
sS's2_2'
p54
F2.439
sS's2_3'
p55
F2.042
sS's2_1'
p56
F3.075
sS's5mean'
p57
F726.134
sS's0_10'
p58
F1.613
sS'logins'
p59
I10
sS's8mean'
p60
F24.342
sS'bronze'
p61
I2000
sS's1mean'
p62
F14.233
sS's6mean'
p63
F36.38
sS's2_28'
p64
F2.67
sS's2_25'
p65
F1.881
sS's2_24'
p66
F3.813
sS's2_27'
p67
F2.06
sS's2_26'
p68
F2.456
sS's2_21'
p69
F1.848
sS's2_20'
p70
F2.163
sS's2_23'
p71
F2.15
sS's2_22'
p72
F2.038
sS's0_8'
p73
F1.477
sS's0_9'
p74
F1.68
sS's0_1'
p75
F1.479
sS's0_2'
p76
F2.875
sS's0_3'
p77
F2.65
sS's0_4'
p78
F3.056
sS's0_5'
p79
F1.35
sS's0_6'
p80
F1.972
sS's0_7'
p81
F1.703
sS's1_9'
p82
F0.877
sS's8visits'
p83
I6
sS's1_8'
p84
F2.394
sS's8_1'
p85
F3.705
sS's8_2'
p86
F3.74
sS's8_3'
p87
F3.749
sS's8_4'
p88
F4.263
sS's8_5'
p89
F4.45
sS's8_6'
p90
F4.435
sS's6visits'
p91
I6
sS's7mean'
p92
F367.08
sS's1_1'
p93
F1.067
sS's1_3'
p94
F1.433
sS's1_2'
p95
F1.313
sS's1_5'
p96
F1.263
sS's1_4'
p97
F2.304
sS's1_7'
p98
F1.167
sS's1_6'
p99
F1.044
sS's7_3'
p100
F61.17
sS's7_2'
p101
F61.133
sS's7_1'
p102
F61.221
sS's7_6'
p103
F61.2
sS's7_5'
p104
F61.22
sS's7_4'
p105
F61.136
sS's5_11'
p106
F44.374
sS's5_10'
p107
F43.677
sS's5_13'
p108
F44.571
sS's5_12'
p109
F48.75
sS's2visits'
p110
I28
sS's1_10'
p111
F1.371
sS's5_5'
p112
F42.298
sS's5_4'
p113
F86.384
sS's5_7'
p114
F58.325
sS's5_6'
p115
F35.321
sS's5_1'
p116
F69.749
sS's5_3'
p117
F69.171
sS's5_2'
p118
F94.837
sS's5_9'
p119
F48.116
sS's5_8'
p120
F40.561
sS's2mean'
p121
F66.66
ss.