(dp0
S'Test'
p1
(dp2
S's1_1'
p3
F1.262
sS's6_2'
p4
F6.068
sS's1_3'
p5
F1.714
sS's6_1'
p6
F6.072
sS'gold'
p7
I2000
sS's7_2'
p8
F61.213
sS's7_1'
p9
F61.158
sS's0visits'
p10
I3
sS's1_2'
p11
F0.268
sS's0_1'
p12
F2.199
sS's5mean'
p13
I0
sS's0_2'
p14
F0.051
sS's0_3'
p15
F1.143
sS'arithmaticMaxNumber'
p16
I5
sS's1mean'
p17
F3.2439999999999998
sS's2visits'
p18
I3
sS's8visits'
p19
I2
sS's8_1'
p20
F3.739
sS's8_2'
p21
F3.705
sS'logins'
p22
I3
sS's8mean'
p23
F7.444
sS's7visits'
p24
I2
sS's5visits'
p25
I0
sS's6visits'
p26
I2
sS's0mean'
p27
F3.393
sS's1visits'
p28
I3
sS's7mean'
p29
F122.37100000000001
sS'silver'
p30
I1900
sS'bronze'
p31
I-1
sS's6mean'
p32
F12.14
sS's2_2'
p33
F2.723
sS's2_3'
p34
F1.89
sS's2mean'
p35
F6.62
sS's2_1'
p36
F2.007
ssS'test'
p37
(dp38
S's6_2'
p39
F10.076
sS's6_3'
p40
F6.054
sS's6_1'
p41
F6.083
sS's6_6'
p42
F6.06
sS's6_7'
p43
F6.062
sS'gold'
p44
I2600
sS's6_5'
p45
F6.065
sS's6_8'
p46
F6.066
sS's6_9'
p47
F6.065
sS's6_4'
p48
F6.062
sS's2_14'
p49
F2.115
sS's2_15'
p50
F1.861
sS's2_16'
p51
F1.352
sS's2_17'
p52
F1.993
sS's2_10'
p53
F3.655
sS's2_11'
p54
F4.718
sS's2_12'
p55
F3.751
sS's2_13'
p56
F1.034
sS's2_18'
p57
F1.05
sS's2_19'
p58
F1.55
sS's7visits'
p59
I7
sS's5visits'
p60
I14
sS's2_20'
p61
F1.242
sS's0mean'
p62
F28.036
sS's1visits'
p63
I15
sS'silver'
p64
I2500
sS's2_8'
p65
F4.683
sS's2_9'
p66
F2.304
sS's2_6'
p67
F2.617
sS's2_7'
p68
F2.077
sS's2_4'
p69
F4.892
sS's2_5'
p70
F2.593
sS's2_2'
p71
F6.96
sS's2_3'
p72
F1.039
sS's2_1'
p73
F2.382
sS's5mean'
p74
F504.5280000000001
sS's0_12'
p75
F0.997
sS's0_13'
p76
F1.173
sS's0_10'
p77
F0.979
sS's0_11'
p78
F0.975
sS's0_14'
p79
F0.94
sS's0_15'
p80
F0.965
sS'logins'
p81
I14
sS's8mean'
p82
F27.328999999999997
sS'bronze'
p83
I2400
sS's1mean'
p84
F16.537999999999997
sS's6mean'
p85
F58.593
sS's2_29'
p86
F1.555
sS's2_28'
p87
F1.967
sS's2_25'
p88
F4.511
sS's2_24'
p89
F1.142
sS's2_27'
p90
F1.871
sS's2_26'
p91
F2.009
sS's2_21'
p92
F1.025
sS's0visits'
p93
I15
sS's2_23'
p94
F1.037
sS's2_22'
p95
F1.57
sS's0_8'
p96
F1.874
sS's0_9'
p97
F1.154
sS's0_1'
p98
F3.57
sS's0_2'
p99
F2.232
sS's0_3'
p100
F4.495
sS's0_4'
p101
F2.246
sS's0_5'
p102
F3.961
sS's0_6'
p103
F1.35
sS's0_7'
p104
F1.125
sS'arithmaticMaxNumber'
p105
I9
sS's7_3'
p106
F61.127
sS's8visits'
p107
I7
sS's1_8'
p108
F0.879
sS's8_1'
p109
F3.836
sS's8_2'
p110
F3.76
sS's8_3'
p111
F4.555
sS's8_4'
p112
F3.82
sS's8_5'
p113
F3.761
sS's8_6'
p114
F3.79
sS's8_7'
p115
F3.807
sS's2_32'
p116
F1.757
sS's2_30'
p117
F2.173
sS's6visits'
p118
I9
sS's7mean'
p119
F428.233
sS's1_1'
p120
F1.375
sS's1_3'
p121
F0.949
sS's1_2'
p122
F1.308
sS's1_5'
p123
F1.748
sS's1_4'
p124
F1.516
sS's1_7'
p125
F0.986
sS's1_6'
p126
F1.071
sS's1_9'
p127
F0.963
sS's7_2'
p128
F61.206
sS's7_1'
p129
F61.21
sS's7_7'
p130
F61.21
sS's7_6'
p131
F61.127
sS's7_5'
p132
F61.186
sS's7_4'
p133
F61.167
sS's5_14'
p134
F35.394
sS's5_11'
p135
F16.35
sS's5_10'
p136
F31.106
sS's5_13'
p137
F54.387
sS's5_12'
p138
F52.886
sS's2visits'
p139
I32
sS's1_11'
p140
F0.917
sS's1_10'
p141
F0.976
sS's1_13'
p142
F1.03
sS's1_12'
p143
F0.941
sS's1_15'
p144
F0.937
sS's1_14'
p145
F0.942
sS's2_31'
p146
F1.865
sS's5_5'
p147
F19.978
sS's5_4'
p148
F16.306
sS's5_7'
p149
F32.261
sS's5_6'
p150
F50.905
sS's5_1'
p151
F41.484
sS's5_3'
p152
F33.368
sS's5_2'
p153
F54.483
sS's5_9'
p154
F49.267
sS's5_8'
p155
F16.353
sS's2mean'
p156
F76.35
ssS'Dennis'
p157
(dp158
S's1_1'
p159
F3.262
sS's6_2'
p160
F6.054
sS's6_1'
p161
F6.067
sS'gold'
p162
I2200
sS's6_3'
p163
F6.056
sS's7_3'
p164
F61.214
sS's7_2'
p165
F61.388
sS's7_1'
p166
F61.152
sS's0visits'
p167
I1
sS's7_4'
p168
F61.164
sS's0_1'
p169
F4.133
sS's5mean'
p170
F944.4819999999999
sS'arithmaticMaxNumber'
p171
I9
sS's6_4'
p172
F6.054
sS's2visits'
p173
I9
sS's8visits'
p174
I4
sS's8_1'
p175
F3.607
sS's8_2'
p176
F4.182
sS's8_3'
p177
F3.524
sS's8_4'
p178
F3.601
sS'logins'
p179
I1
sS's8mean'
p180
F14.914000000000001
sS's7visits'
p181
I4
sS's5visits'
p182
I5
sS's6visits'
p183
I4
sS's0mean'
p184
F4.133
sS's1visits'
p185
I1
sS's7mean'
p186
F244.918
sS'silver'
p187
I1800
sS'bronze'
p188
I1800
sS's1mean'
p189
F3.262
sS's5_5'
p190
F109.888
sS's5_4'
p191
F128.637
sS's6mean'
p192
F24.231
sS's5_1'
p193
F280.31
sS's2_8'
p194
F1.471
sS's5_3'
p195
F162.618
sS's5_2'
p196
F263.029
sS's2_6'
p197
F29.388
sS's2_7'
p198
F1.25
sS's2_4'
p199
F2.663
sS's2_5'
p200
F5.105
sS's2_2'
p201
F5.015
sS's2_3'
p202
F21.787
sS's2mean'
p203
F77.36700000000002
sS's2_1'
p204
F6.785
sS's2_9'
p205
F3.903
ssS'Lucas'
p206
(dp207
S's1_1'
p208
F0.873
sS's6_1'
p209
F6.066
sS'gold'
p210
I1900
sS's7_1'
p211
F61.19
sS's0visits'
p212
I1
sS's0_1'
p213
F2.695
sS's5mean'
p214
F48.643
sS'arithmaticMaxNumber'
p215
I6
sS's1mean'
p216
F0.873
sS's2visits'
p217
I2
sS's8visits'
p218
I1
sS's8_1'
p219
F3.605
sS'logins'
p220
I1
sS's8mean'
p221
F3.605
sS's7visits'
p222
I1
sS's5visits'
p223
I1
sS's6visits'
p224
I1
sS's0mean'
p225
F2.695
sS's1visits'
p226
I1
sS's7mean'
p227
F61.19
sS'silver'
p228
I-1
sS'bronze'
p229
I-1
sS's6mean'
p230
F6.066
sS's5_1'
p231
F48.643
sS's2_2'
p232
F3.368
sS's2mean'
p233
F5.813
sS's2_1'
p234
F2.445
ss.