(dp0
S'Luke'
p1
(dp2
S's6mean'
p3
F6.06
sS's1mean'
p4
F6.0600000000000005
sS'gold'
p5
I2300
sS'logins'
p6
I4
sS's5visits'
p7
I2
sS's7visits'
p8
I1
sS's2visits'
p9
I6
sS's8mean'
p10
F4.1
sS's0visits'
p11
I4
sS's2mean'
p12
F-68.01
sS's6visits'
p13
I1
sS's0mean'
p14
F14.93
sS's8visits'
p15
I1
sS's1visits'
p16
I4
sS's5mean'
p17
F119.66
sS's7mean'
p18
F61.19
sS'silver'
p19
I-1
sS'bronze'
p20
I-1
ss.