(dp0
S'test'
p1
(dp2
S's1_1'
p3
F6.767
sS's6_2'
p4
F6.073
sS's6_1'
p5
F6.07
sS'gold'
p6
I3000
sS's7_2'
p7
F61.187
sS's7_1'
p8
F61.19
sS's0visits'
p9
I1
sS'score1'
p10
I2800
sS'score2'
p11
I3000
sS's0_1'
p12
F0.039
sS's5mean'
p13
I0
sS'arithmaticMaxNumber'
p14
I7
sS's1mean'
p15
F6.767
sS's2visits'
p16
I2
sS's8visits'
p17
I2
sS's8_1'
p18
F3.691
sS's8_2'
p19
F3.655
sS'logins'
p20
I1
sS's8mean'
p21
F7.346
sS's7visits'
p22
I2
sS's5visits'
p23
I0
sS's6visits'
p24
I2
sS's0mean'
p25
F0.039
sS's1visits'
p26
I1
sS's7mean'
p27
F122.377
sS'silver'
p28
I2800
sS'bronze'
p29
I-1
sS's6mean'
p30
F12.143
sS's2_2'
p31
F2.544
sS's2mean'
p32
F4.515000000000001
sS's2_1'
p33
F1.971
ss.