(dp0
S'A'
p1
(dp2
S's6mean'
p3
I0
sS's1mean'
p4
I0
sS'gold'
p5
I-1
sS'logins'
p6
I1
sS's8mean'
p7
I0
sS's7visits'
p8
I0
sS's2visits'
p9
I0
sS's5visits'
p10
I0
sS's0visits'
p11
I0
sS's2mean'
p12
I0
sS's6visits'
p13
I0
sS's0mean'
p14
I0
sS's8visits'
p15
I0
sS's1visits'
p16
I0
sS's5mean'
p17
I0
sS's7mean'
p18
I0
sS'silver'
p19
I-1
sS'bronze'
p20
I-1
ssS'a'
p21
(dp22
S's1_1'
p23
F1.11
sS's1_2'
p24
F1.197
sS'gold'
p25
I-1
sS's0visits'
p26
I2
sS's-1visits'
p27
I2
sS's5mean'
p28
I0
sS's0_1'
p29
F1.763
sS's0_2'
p30
F1.315
sS's1mean'
p31
F4.077999999999999
sS's2visits'
p32
I1
sS's8visits'
p33
I0
sS's-1mean'
p34
F2.92
sS'logins'
p35
I8
sS's8mean'
p36
I0
sS's7visits'
p37
I0
sS's5visits'
p38
I0
sS's6visits'
p39
I0
sS's0mean'
p40
F2.425
sS's1visits'
p41
I2
sS's7mean'
p42
I0
sS'silver'
p43
I-1
sS'bronze'
p44
I-1
sS's6mean'
p45
I0
sS's2mean'
p46
F2.268
sS's2_1'
p47
F2.268
sS's-1_1'
p48
F2.684
sS's-1_2'
p49
F1.157
ssS'ab'
p50
(dp51
S's1_1'
p52
F1.244
sS'gold'
p53
I-1
sS's0visits'
p54
I1
sS's-1visits'
p55
I1
sS's5mean'
p56
I0
sS's0_1'
p57
F1.685
sS's1mean'
p58
F1.244
sS's2visits'
p59
I1
sS's8visits'
p60
I0
sS's-1mean'
p61
F1.707
sS'logins'
p62
I1
sS's5visits'
p63
I0
sS's7visits'
p64
I0
sS's8mean'
p65
I0
sS's6visits'
p66
I0
sS's0mean'
p67
F1.685
sS's1visits'
p68
I1
sS's7mean'
p69
I0
sS'silver'
p70
I-1
sS'bronze'
p71
I-1
sS's6mean'
p72
I0
sS's2mean'
p73
F2.933
sS's2_1'
p74
F2.933
sS's-1_1'
p75
F1.707
ssS'abce'
p76
(dp77
S's1_1'
p78
F1.531
sS's1_2'
p79
F1.782
sS'gold'
p80
I-1
sS's0visits'
p81
I2
sS's5mean'
p82
F5.015
sS's0_1'
p83
F2.246
sS's0_2'
p84
F9.204
sS's1mean'
p85
F3.3129999999999997
sS's2visits'
p86
I2
sS's8visits'
p87
I0
sS'logins'
p88
I2
sS's5visits'
p89
I2
sS's7visits'
p90
I0
sS's8mean'
p91
I0
sS's6visits'
p92
I0
sS's0mean'
p93
F11.450000000000001
sS's1visits'
p94
I2
sS's7mean'
p95
I0
sS'silver'
p96
I-1
sS'bronze'
p97
I-1
sS's6mean'
p98
I0
sS's5_1'
p99
F2.276
sS's5_2'
p100
F2.739
sS's2_2'
p101
F1.048
sS's2mean'
p102
F2.253
sS's2_1'
p103
F1.205
ssS'Luke'
p104
(dp105
S's6mean'
p106
F6.06
sS's1mean'
p107
F6.0600000000000005
sS'gold'
p108
I2300
sS'logins'
p109
I4
sS's5visits'
p110
I2
sS's7visits'
p111
I1
sS's2visits'
p112
I6
sS's8mean'
p113
F4.1
sS's0visits'
p114
I4
sS's2mean'
p115
F-68.01
sS's6visits'
p116
I1
sS's0mean'
p117
F14.93
sS's8visits'
p118
I1
sS's1visits'
p119
I4
sS's5mean'
p120
F119.66
sS's7mean'
p121
F61.19
sS'silver'
p122
I-1
sS'bronze'
p123
I-1
ssS'Test'
p124
(dp125
S's6mean'
p126
I0
sS's1mean'
p127
I0
sS'gold'
p128
I-1
sS'logins'
p129
I1
sS's5visits'
p130
I0
sS's7visits'
p131
I0
sS's2visits'
p132
I0
sS's8mean'
p133
I0
sS's0visits'
p134
I0
sS's2mean'
p135
I0
sS's6visits'
p136
I0
sS's0mean'
p137
I0
sS's8visits'
p138
I0
sS's1visits'
p139
I0
sS's5mean'
p140
I0
sS's7mean'
p141
I0
sS'silver'
p142
I-1
sS'bronze'
p143
I-1
ssS'abc'
p144
(dp145
S's1_1'
p146
F1.786
sS'gold'
p147
I-1
sS's0visits'
p148
I1
sS's5mean'
p149
F2.818
sS's0_1'
p150
F2.02
sS's1mean'
p151
F1.786
sS's2visits'
p152
I1
sS's8visits'
p153
I0
sS'logins'
p154
I1
sS's5visits'
p155
I1
sS's7visits'
p156
I0
sS's8mean'
p157
I0
sS's6visits'
p158
I0
sS's0mean'
p159
F2.02
sS's1visits'
p160
I1
sS's7mean'
p161
I0
sS'silver'
p162
I-1
sS'bronze'
p163
I-1
sS's6mean'
p164
I0
sS's5_1'
p165
F2.818
sS's2mean'
p166
F1.308
sS's2_1'
p167
F1.308
ssS'test'
p168
(dp169
S's1_1'
p170
F2.279
sS's1_2'
p171
F1.257
sS'gold'
p172
I-1
sS's0visits'
p173
I3
sS's5mean'
p174
F4.88
sS's0_1'
p175
F1.285
sS's0_2'
p176
F1.318
sS's0_3'
p177
F2.832
sS's1mean'
p178
F3.5359999999999996
sS's2visits'
p179
I2
sS's8visits'
p180
I0
sS'logins'
p181
I4
sS's8mean'
p182
I0
sS's7visits'
p183
I0
sS's5visits'
p184
I2
sS's6visits'
p185
I0
sS's0mean'
p186
F5.435
sS's1visits'
p187
I2
sS's7mean'
p188
I0
sS'silver'
p189
I-1
sS'bronze'
p190
I-1
sS's6mean'
p191
I0
sS's5_1'
p192
F2.46
sS's5_2'
p193
F2.42
sS's2_2'
p194
F1.195
sS's2mean'
p195
F2.284
sS's2_1'
p196
F1.089
ssS'b'
p197
(dp198
S's1_1'
p199
F1.231
sS's1_2'
p200
F1.748
sS'gold'
p201
I-1
sS's0visits'
p202
I2
sS's-1visits'
p203
I2
sS's5mean'
p204
I0
sS's0_1'
p205
F2.586
sS's0_2'
p206
F4.361
sS's1mean'
p207
F7.3870000000000005
sS's2visits'
p208
I1
sS's8visits'
p209
I0
sS's-1mean'
p210
F3.859
sS'logins'
p211
I2
sS's5visits'
p212
I0
sS's7visits'
p213
I0
sS's8mean'
p214
I0
sS's6visits'
p215
I0
sS's0mean'
p216
F5.592
sS's1visits'
p217
I2
sS's7mean'
p218
I0
sS'silver'
p219
I-1
sS'bronze'
p220
I-1
sS's6mean'
p221
I0
sS's2mean'
p222
F2.321
sS's2_1'
p223
F2.321
sS's-1_1'
p224
F1.96
sS's-1_2'
p225
F1.273
ss.